;;; RESET routine
;;; 1505 bytes from offset 29344

72A0: AD CB FF 29 02 F0 03 4C
72A8: 88 73 78 9C 0D 02 9C 0E
72B0: 02 9C 02 02 A9 74 1C 00
72B8: 02 A9 FF 1C 01 02 AE 0F
72C0: 02 9A 20 42 74 9C 12 02
72C8: 9C 13 02 A9 01 2C 00 02
72D0: F0 03 4C 88 73 20 2E 7B
72D8: 90 03 4C 88 73 00 00 3B
72E0: 88 00 00 4D 85 9C 02 02
72E8: 00 00 D6 81 9C 02 02 CC
72F0: 10 02 F0 03 4C 88 73 EC
72F8: 11 02 F0 03 4C 88 73 9C
7300: 10 02 9C 11 02 00 00 FA
7308: 8D A9 08 2C 00 02 F0 06
7310: AD 40 02 3A F0 43 AD 44
7318: 02 1A F0 3D AD 46 02 0D
7320: 47 02 F0 35 AD 42 02 1A
7328: F0 2F A5 10 48 A5 0F 48
7330: A5 12 48 A5 11 48 AD 47
7338: 02 85 10 AD 46 02 85 0F
7340: AD 45 02 85 11 AD 42 02
7348: 20 7F 7A 68 85 11 68 85
7350: 12 68 85 0F 68 85 10 B0
7358: 0E 00 00 E0 8D A0 04 20
7360: 9B 7B A9 04 4C 17 74 AD
7368: 42 02 00 00 5F 8E 8D 43
7370: 02 AD 43 02 AE 45 02 00
7378: 00 70 8E 8D 44 02 A9 02
7380: 2C 00 02 D0 D8 4C 50 77
7388: 78 9C 0D 02 9C 0E 02 9C
7390: 02 02 A9 74 1C 00 02 A9
7398: FF 1C 01 02 A9 20 8D C8
73A0: FF A2 FF 9A A2 00 74 00
73A8: E8 D0 FB 9C 02 02 A9 02
73B0: 85 01 64 00 A9 00 A8 A2
73B8: 1D 91 00 C8 D0 FB E6 01
73C0: CA 10 F6 9C 02 02 9C 12
73C8: 02 9C 13 02 A9 0C 0C 00
73D0: 02 A9 13 1C 00 02 20 42
73D8: 74 A0 04 20 9B 7B 00 00
73E0: 4D 85 00 00 DA 8D 9C 02
73E8: 02 20 2E 7B B0 F8 00 00
73F0: 3B 88 9C 12 02 9C 13 02
73F8: A9 04 1C 00 02 A9 00 80
7400: 16 EE 12 02 D0 03 EE 13
7408: 02 AD 13 02 C9 05 90 05
7410: 00 00 00 81 60 A9 06 A2
7418: FF 9A 48 00 00 97 83 64
7420: 00 00 00 0D 88 A9 20 0C
7428: 00 02 A9 80 1C 01 02 00
7430: 00 51 88 FA AD 44 02 C9
7438: FF D0 02 A9 00 00 00 90
7440: 8E 60 20 48 74 4C 9E 94
7448: A9 80 2C F9 FF 10 21 1C
7450: 00 02 9C 0C 02 AD CB FF
7458: 29 20 F0 04 A9 01 80 05
7460: A9 03 EE 0C 02 8D 0B 02
7468: 8D 05 02 8D CB FF 80 1F
7470: 0C 00 02 AD FF FF 29 F0
7478: 8D 0B 02 2A 2A 2A 29 03
7480: 8D 0C 02 AD CB FF 29 08
7488: F0 05 A9 01 0C 00 02 AD
7490: E8 FF 8D 08 02 20 FC 75
7498: A9 00 20 43 82 60 20 63
74A0: 78 60 2C 00 02 30 07 AD
74A8: 05 02 29 03 4A 60 AD FF
74B0: FF 2A 2A 2A 29 03 60 AD
74B8: 09 02 80 02 A9 00 8D 1B
74C0: 02 20 45 78 2C 00 02 30
74C8: 1C AD 09 02 48 AD 03 02
74D0: 29 18 48 20 A2 74 48 AD
74D8: 05 02 29 03 48 AD 07 02
74E0: 29 10 48 80 10 AD FB FF
74E8: 48 AD 09 02 48 20 A2 74
74F0: 48 AD FF FF 48 AD 1B 02
74F8: 20 FE 75 4C 9E 74 20 45
7500: 78 AD 0A 02 48 AD 07 02
7508: 29 C0 48 2C 00 02 30 06
7510: AD 03 02 29 60 48 4C 9E
7518: 74 20 45 78 2C 00 02 30
7520: 0F 64 26 A9 BF 20 EB 77
7528: 68 85 26 A9 9F 20 DF 77
7530: 68 85 26 A9 3F 20 EB 77
7538: 68 8D 0A 02 8D E6 FF 4C
7540: 9E 74 20 45 78 2C 00 02
7548: 30 0C AD 07 02 29 10 48
7550: AD 09 02 48 80 0E AD FB
7558: FF 48 AD 09 02 48 AD FF
7560: FF 29 30 48 4C 9E 74 20
7568: 45 78 2C 00 02 30 11 68
7570: 8D 09 02 8D D6 FF 68 85
7578: 26 A9 EF 20 EB 77 80 13
7580: 68 85 26 A9 CF 20 F7 77
7588: 68 8D 09 02 8D D6 FF 68
7590: 8D FB FF 4C 9E 74 20 45
7598: 78 2C 00 02 10 04 AD FB
75A0: FF 48 AD 09 02 48 4C 9E
75A8: 74 20 45 78 68 8D 09 02
75B0: 8D D6 FF 2C 00 02 10 04
75B8: 68 8D FB FF 4C 9E 74 2C
75C0: 00 02 30 0B 85 26 20 A2
75C8: 74 C5 26 F0 13 80 13 C9
75D0: 04 B0 0F 0A 0A 0A 0A 29
75D8: 30 85 26 A9 CF 20 F7 77
75E0: 38 60 18 60 2C 00 02 30
75E8: 03 4C A2 74 AD FF FF 29
75F0: 30 4A 4A 4A 4A 60 20 FC
75F8: 75 4C 0D 7F A9 00 8D 09
7600: 02 8D D6 FF 2C 00 02 10
7608: 03 9C FB FF 38 60 AD 09
7610: 02 60 A9 60 85 26 A9 9F
7618: 20 DF 77 A9 40 85 26 A9
7620: 3F 20 EB 77 A9 0F 8D 0A
7628: 02 8D E6 FF 60 20 45 78
7630: AD 0A 02 48 AD 07 02 29
7638: C0 48 2C 00 02 30 06 AD
7640: 03 02 29 60 48 20 12 76
7648: 4C 9E 74 20 5D 76 90 0C
7650: 2C 00 02 10 06 AD 0D 80
7658: 20 C1 76 38 60 2C 00 02
7660: 30 25 AA AD 05 02 29 03
7668: C9 01 F0 06 E0 01 D0 3C
7670: 80 33 E0 00 F0 2F E0 01
7678: D0 32 A9 10 85 26 A9 EF
7680: 20 EB 77 A9 80 80 20 C9
7688: 04 B0 21 48 0A 0A 0A 0A
7690: 29 30 85 26 A9 C1 20 F7
7698: 77 20 A5 76 AD 0D 80 FA
76A0: 20 B6 76 80 05 A9 00 20
76A8: FE 75 38 60 18 60 00 08
76B0: 10 18 18 18 18 18 E0 00
76B8: D0 07 2C 00 02 30 02 A9
76C0: 04 2C 00 02 30 1A AA BD
76C8: AE 76 85 26 A9 E7 20 DF
76D0: 77 A9 10 E0 04 F0 02 A9
76D8: 00 85 26 A9 EF 4C EB 77
76E0: 0A 29 0E 85 26 A9 F1 4C
76E8: F7 77 20 45 78 2C 00 02
76F0: 30 0E AD 07 02 29 10 48
76F8: AD 03 02 29 18 48 80 06
7700: AD FF FF 29 0E 48 4C 9E
7708: 74 20 45 78 2C 00 02 30
7710: 12 68 85 26 A9 E7 20 DF
7718: 77 68 85 26 A9 EF 20 EB
7720: 77 80 08 68 85 26 A9 F1
7728: 20 F7 77 4C 9E 74 20 BC
7730: 74 20 FE 74 BA 8E 0F 02
7738: A9 00 8D E3 FF A9 01 2C
7740: 00 02 30 02 A9 39 8D C8
7748: FF EA EA EA EA EA 80 F6
7750: 20 19 75 20 0D 7F 60 2C
7758: 00 02 30 0C A8 F0 02 A9
7760: 04 85 26 A9 FB 4C DF 77
7768: A8 F0 02 A9 04 85 26 A9
7770: FB 4C 00 78 20 45 78 2C
7778: 00 02 30 0E AD 03 02 29
7780: 04 48 AD 07 02 29 02 48
7788: 80 16 AD 05 02 29 04 48
7790: AD 03 02 29 04 48 AD 65
7798: 02 48 AD 07 02 29 08 48
77A0: 4C 9E 74 20 45 78 2C 00
77A8: 02 30 12 68 85 26 A9 FD
77B0: 20 EB 77 68 85 26 A9 FB
77B8: 20 DF 77 80 1F 68 85 26
77C0: A9 F7 20 EB 77 68 8D 65
77C8: 02 8D FE FF 68 85 26 A9
77D0: FB 20 DF 77 68 85 26 A9
77D8: FB 20 00 78 4C 9E 74 2D
77E0: 03 02 05 26 8D 03 02 8D
77E8: C8 FF 60 2D 07 02 05 26
77F0: 8D 07 02 8D E5 FF 60 2D
77F8: FF FF 05 26 8D FF FF 60
7800: 2D 05 02 05 26 8D 05 02
7808: 8D CB FF 60 20 45 78 2C
7810: 00 02 10 07 AD F9 FF 48
7818: 9C F9 FF AD D0 FF 48 AD
7820: CF FF 48 AD CE FF 48 4C
7828: 9E 74 20 45 78 68 8D CE
7830: FF 68 8D CF FF 68 8D D0
7838: FF 2C 00 02 10 04 68 8D
7840: F9 FF 4C 9E 74 DA BA BD
7848: 05 01 8D 19 02 BD 04 01
7850: 8D 1A 02 BD 02 01 9D 04
7858: 01 BD 03 01 9D 05 01 FA
7860: 68 68 60 48 48 DA BA BD
7868: 04 01 9D 02 01 BD 05 01
7870: 9D 03 01 AD 19 02 9D 05
7878: 01 AD 1A 02 9D 04 01 FA
7880: 60


;;; ASM start
;;; Illegal opcodes decoded

                            * = $72A0
72A0   AD CB FF             LDA $FFCB
72A3   29 02                AND #$02
72A5   F0 03                BEQ L72AA
72A7   4C 88 73             JMP L7388
72AA   78         L72AA     SEI
72AB   9C 0D 02             SHY $020D,X
72AE   9C 0E 02             SHY $020E,X
72B1   9C 02 02             SHY $0202,X
72B4   A9 74                LDA #$74
72B6   1C 00 02             NOP $0200,X
72B9   A9 FF                LDA #$FF
72BB   1C 01 02             NOP $0201,X
72BE   AE 0F 02             LDX $020F
72C1   9A                   TXS
72C2   20 42 74             JSR L7442
72C5   9C 12 02             SHY $0212,X
72C8   9C 13 02             SHY $0213,X
72CB   A9 01                LDA #$01
72CD   2C 00 02             BIT $0200
72D0   F0 03                BEQ L72D5
72D2   4C 88 73             JMP L7388
72D5   20 2E 7B   L72D5     JSR $7B2E
72D8   90 03                BCC L72DD
72DA   4C 88 73             JMP L7388
72DD   00         L72DD     BRK
72DE   00                   BRK
72DF   3B 88 00             RLA $0088,Y
72E2   00                   BRK
72E3   4D 85 9C             EOR $9C85
72E6   02                   JAM
72E7   02                   JAM
72E8   00                   BRK
72E9   00                   BRK
72EA   D6 81                DEC $81,X
72EC   9C 02 02             SHY $0202,X
72EF   CC 10 02             CPY $0210
72F2   F0 03                BEQ L72F7
72F4   4C 88 73             JMP L7388
72F7   EC 11 02   L72F7     CPX $0211
72FA   F0 03                BEQ L72FF
72FC   4C 88 73             JMP L7388
72FF   9C 10 02   L72FF     SHY $0210,X
7302   9C 11 02             SHY $0211,X
7305   00                   BRK
7306   00                   BRK
7307   FA                   NOP
7308   8D A9 08             STA $08A9
730B   2C 00 02             BIT $0200
730E   F0 06                BEQ L7316
7310   AD 40 02             LDA $0240
7313   3A                   NOP
7314   F0 43                BEQ L7359
7316   AD 44 02   L7316     LDA $0244
7319   1A                   NOP
731A   F0 3D                BEQ L7359
731C   AD 46 02             LDA $0246
731F   0D 47 02             ORA $0247
7322   F0 35                BEQ L7359
7324   AD 42 02             LDA $0242
7327   1A                   NOP
7328   F0 2F                BEQ L7359
732A   A5 10                LDA $10
732C   48                   PHA
732D   A5 0F                LDA $0F
732F   48                   PHA
7330   A5 12                LDA $12
7332   48                   PHA
7333   A5 11                LDA $11
7335   48                   PHA
7336   AD 47 02             LDA $0247
7339   85 10                STA $10
733B   AD 46 02             LDA $0246
733E   85 0F                STA $0F
7340   AD 45 02             LDA $0245
7343   85 11                STA $11
7345   AD 42 02             LDA $0242
7348   20 7F 7A             JSR $7A7F
734B   68                   PLA
734C   85 11                STA $11
734E   68                   PLA
734F   85 12                STA $12
7351   68                   PLA
7352   85 0F                STA $0F
7354   68                   PLA
7355   85 10                STA $10
7357   B0 0E                BCS L7367
7359   00         L7359     BRK
735A   00                   BRK
735B   E0 8D                CPX #$8D
735D   A0 04      L735D     LDY #$04
735F   20 9B 7B             JSR $7B9B
7362   A9 04                LDA #$04
7364   4C 17 74             JMP L7417
7367   AD 42 02   L7367     LDA $0242
736A   00                   BRK
736B   00                   BRK
736C   5F 8E 8D             SRE $8D8E,X
736F   43 02                SRE ($02,X)
7371   AD 43 02             LDA $0243
7374   AE 45 02             LDX $0245
7377   00                   BRK
7378   00                   BRK
7379   70 8E                BVS L7309
737B   8D 44 02             STA $0244
737E   A9 02                LDA #$02
7380   2C 00 02             BIT $0200
7383   D0 D8                BNE L735D
7385   4C 50 77             JMP L7750
7388   78         L7388     SEI
7389   9C 0D 02             SHY $020D,X
738C   9C 0E 02             SHY $020E,X
738F   9C 02 02             SHY $0202,X
7392   A9 74                LDA #$74
7394   1C 00 02             NOP $0200,X
7397   A9 FF                LDA #$FF
7399   1C 01 02             NOP $0201,X
739C   A9 20                LDA #$20
739E   8D C8 FF             STA $FFC8
73A1   A2 FF                LDX #$FF
73A3   9A                   TXS
73A4   A2 00                LDX #$00
73A6   74 00      L73A6     NOP $00,X
73A8   E8                   INX
73A9   D0 FB                BNE L73A6
73AB   9C 02 02             SHY $0202,X
73AE   A9 02                LDA #$02
73B0   85 01                STA $01
73B2   64 00                NOP $00
73B4   A9 00                LDA #$00
73B6   A8                   TAY
73B7   A2 1D                LDX #$1D
73B9   91 00      L73B9     STA ($00),Y
73BB   C8                   INY
73BC   D0 FB                BNE L73B9
73BE   E6 01                INC $01
73C0   CA                   DEX
73C1   10 F6                BPL L73B9
73C3   9C 02 02             SHY $0202,X
73C6   9C 12 02             SHY $0212,X
73C9   9C 13 02             SHY $0213,X
73CC   A9 0C                LDA #$0C
73CE   0C 00 02             NOP $0200
73D1   A9 13                LDA #$13
73D3   1C 00 02             NOP $0200,X
73D6   20 42 74             JSR L7442
73D9   A0 04                LDY #$04
73DB   20 9B 7B             JSR $7B9B
73DE   00                   BRK
73DF   00                   BRK
73E0   4D 85 00             EOR $0085
73E3   00                   BRK
73E4   DA                   NOP
73E5   8D 9C 02             STA $029C
73E8   02                   JAM
73E9   20 2E 7B             JSR $7B2E
73EC   B0 F8                BCS L73E6
73EE   00                   BRK
73EF   00                   BRK
73F0   3B 88 9C             RLA $9C88,Y
73F3   12                   JAM
73F4   02                   JAM
73F5   9C 13 02             SHY $0213,X
73F8   A9 04                LDA #$04
73FA   1C 00 02             NOP $0200,X
73FD   A9 00                LDA #$00
73FF   80 16                NOP #$16
7401   EE 12 02             INC $0212
7404   D0 03                BNE L7409
7406   EE 13 02             INC $0213
7409   AD 13 02   L7409     LDA $0213
740C   C9 05                CMP #$05
740E   90 05                BCC L7415
7410   00                   BRK
7411   00                   BRK
7412   00                   BRK
7413   81 60                STA ($60,X)
7415   A9 06      L7415     LDA #$06
7417   A2 FF      L7417     LDX #$FF
7419   9A                   TXS
741A   48                   PHA
741B   00                   BRK
741C   00                   BRK
741D   97 83                SAX $83,Y
741F   64 00                NOP $00
7421   00                   BRK
7422   00                   BRK
7423   0D 88 A9             ORA $A988
7426   20 0C 00             JSR $000C
7429   02                   JAM
742A   A9 80                LDA #$80
742C   1C 01 02             NOP $0201,X
742F   00                   BRK
7430   00                   BRK
7431   51 88                EOR ($88),Y
7433   FA                   NOP
7434   AD 44 02             LDA $0244
7437   C9 FF                CMP #$FF
7439   D0 02                BNE L743D
743B   A9 00                LDA #$00
743D   00         L743D     BRK
743E   00                   BRK
743F   90 8E                BCC L73CF
7441   60                   RTS
7442   20 48 74   L7442     JSR L7448
7445   4C 9E 94             JMP $949E
7448   A9 80      L7448     LDA #$80
744A   2C F9 FF             BIT $FFF9
744D   10 21                BPL L7470
744F   1C 00 02             NOP $0200,X
7452   9C 0C 02             SHY $020C,X
7455   AD CB FF             LDA $FFCB
7458   29 20                AND #$20
745A   F0 04                BEQ L7460
745C   A9 01                LDA #$01
745E   80 05                NOP #$05
7460   A9 03      L7460     LDA #$03
7462   EE 0C 02             INC $020C
7465   8D 0B 02             STA $020B
7468   8D 05 02             STA $0205
746B   8D CB FF             STA $FFCB
746E   80 1F                NOP #$1F
7470   0C 00 02   L7470     NOP $0200
7473   AD FF FF             LDA $FFFF
7476   29 F0                AND #$F0
7478   8D 0B 02             STA $020B
747B   2A                   ROL A
747C   2A                   ROL A
747D   2A                   ROL A
747E   29 03                AND #$03
7480   8D 0C 02             STA $020C
7483   AD CB FF             LDA $FFCB
7486   29 08                AND #$08
7488   F0 05                BEQ L748F
748A   A9 01                LDA #$01
748C   0C 00 02             NOP $0200
748F   AD E8 FF   L748F     LDA $FFE8
7492   8D 08 02             STA $0208
7495   20 FC 75             JSR L75FC
7498   A9 00                LDA #$00
749A   20 43 82             JSR $8243
749D   60                   RTS
749E   20 63 78   L749E     JSR L7863
74A1   60                   RTS
74A2   2C 00 02   L74A2     BIT $0200
74A5   30 07                BMI L74AE
74A7   AD 05 02             LDA $0205
74AA   29 03                AND #$03
74AC   4A                   LSR A
74AD   60                   RTS
74AE   AD FF FF   L74AE     LDA $FFFF
74B1   2A                   ROL A
74B2   2A                   ROL A
74B3   2A                   ROL A
74B4   29 03                AND #$03
74B6   60                   RTS
74B7   AD 09 02             LDA $0209
74BA   80 02                NOP #$02
74BC   A9 00      L74BC     LDA #$00
74BE   8D 1B 02             STA $021B
74C1   20 45 78             JSR L7845
74C4   2C 00 02             BIT $0200
74C7   30 1C                BMI L74E5
74C9   AD 09 02             LDA $0209
74CC   48                   PHA
74CD   AD 03 02             LDA $0203
74D0   29 18                AND #$18
74D2   48                   PHA
74D3   20 A2 74             JSR L74A2
74D6   48                   PHA
74D7   AD 05 02             LDA $0205
74DA   29 03                AND #$03
74DC   48                   PHA
74DD   AD 07 02             LDA $0207
74E0   29 10                AND #$10
74E2   48                   PHA
74E3   80 10                NOP #$10
74E5   AD FB FF   L74E5     LDA $FFFB
74E8   48                   PHA
74E9   AD 09 02             LDA $0209
74EC   48                   PHA
74ED   20 A2 74             JSR L74A2
74F0   48                   PHA
74F1   AD FF FF             LDA $FFFF
74F4   48                   PHA
74F5   AD 1B 02             LDA $021B
74F8   20 FE 75             JSR L75FE
74FB   4C 9E 74             JMP L749E
74FE   20 45 78   L74FE     JSR L7845
7501   AD 0A 02             LDA $020A
7504   48                   PHA
7505   AD 07 02             LDA $0207
7508   29 C0                AND #$C0
750A   48                   PHA
750B   2C 00 02             BIT $0200
750E   30 06                BMI L7516
7510   AD 03 02             LDA $0203
7513   29 60                AND #$60
7515   48                   PHA
7516   4C 9E 74   L7516     JMP L749E
7519   20 45 78   L7519     JSR L7845
751C   2C 00 02             BIT $0200
751F   30 0F                BMI L7530
7521   64 26                NOP $26
7523   A9 BF                LDA #$BF
7525   20 EB 77             JSR L77EB
7528   68                   PLA
7529   85 26                STA $26
752B   A9 9F                LDA #$9F
752D   20 DF 77             JSR L77DF
7530   68         L7530     PLA
7531   85 26                STA $26
7533   A9 3F                LDA #$3F
7535   20 EB 77             JSR L77EB
7538   68                   PLA
7539   8D 0A 02             STA $020A
753C   8D E6 FF             STA $FFE6
753F   4C 9E 74             JMP L749E
7542   20 45 78             JSR L7845
7545   2C 00 02             BIT $0200
7548   30 0C                BMI L7556
754A   AD 07 02             LDA $0207
754D   29 10                AND #$10
754F   48                   PHA
7550   AD 09 02             LDA $0209
7553   48                   PHA
7554   80 0E                NOP #$0E
7556   AD FB FF   L7556     LDA $FFFB
7559   48                   PHA
755A   AD 09 02             LDA $0209
755D   48                   PHA
755E   AD FF FF             LDA $FFFF
7561   29 30                AND #$30
7563   48                   PHA
7564   4C 9E 74             JMP L749E
7567   20 45 78             JSR L7845
756A   2C 00 02             BIT $0200
756D   30 11                BMI L7580
756F   68                   PLA
7570   8D 09 02             STA $0209
7573   8D D6 FF             STA $FFD6
7576   68                   PLA
7577   85 26                STA $26
7579   A9 EF                LDA #$EF
757B   20 EB 77             JSR L77EB
757E   80 13                NOP #$13
7580   68         L7580     PLA
7581   85 26                STA $26
7583   A9 CF                LDA #$CF
7585   20 F7 77             JSR L77F7
7588   68                   PLA
7589   8D 09 02             STA $0209
758C   8D D6 FF             STA $FFD6
758F   68                   PLA
7590   8D FB FF             STA $FFFB
7593   4C 9E 74             JMP L749E
7596   20 45 78             JSR L7845
7599   2C 00 02             BIT $0200
759C   10 04                BPL L75A2
759E   AD FB FF             LDA $FFFB
75A1   48                   PHA
75A2   AD 09 02   L75A2     LDA $0209
75A5   48                   PHA
75A6   4C 9E 74             JMP L749E
75A9   20 45 78             JSR L7845
75AC   68                   PLA
75AD   8D 09 02             STA $0209
75B0   8D D6 FF             STA $FFD6
75B3   2C 00 02             BIT $0200
75B6   10 04                BPL L75BC
75B8   68                   PLA
75B9   8D FB FF             STA $FFFB
75BC   4C 9E 74   L75BC     JMP L749E
75BF   2C 00 02             BIT $0200
75C2   30 0B                BMI L75CF
75C4   85 26                STA $26
75C6   20 A2 74             JSR L74A2
75C9   C5 26                CMP $26
75CB   F0 13                BEQ L75E0
75CD   80 13                NOP #$13
75CF   C9 04      L75CF     CMP #$04
75D1   B0 0F                BCS L75E2
75D3   0A                   ASL A
75D4   0A                   ASL A
75D5   0A                   ASL A
75D6   0A                   ASL A
75D7   29 30                AND #$30
75D9   85 26                STA $26
75DB   A9 CF                LDA #$CF
75DD   20 F7 77             JSR L77F7
75E0   38         L75E0     SEC
75E1   60                   RTS
75E2   18         L75E2     CLC
75E3   60                   RTS
75E4   2C 00 02             BIT $0200
75E7   30 03                BMI L75EC
75E9   4C A2 74             JMP L74A2
75EC   AD FF FF   L75EC     LDA $FFFF
75EF   29 30                AND #$30
75F1   4A                   LSR A
75F2   4A                   LSR A
75F3   4A                   LSR A
75F4   4A                   LSR A
75F5   60                   RTS
75F6   20 FC 75             JSR L75FC
75F9   4C 0D 7F             JMP $7F0D
75FC   A9 00      L75FC     LDA #$00
75FE   8D 09 02   L75FE     STA $0209
7601   8D D6 FF             STA $FFD6
7604   2C 00 02             BIT $0200
7607   10 03                BPL L760C
7609   9C FB FF             SHY $FFFB,X
760C   38         L760C     SEC
760D   60                   RTS
760E   AD 09 02             LDA $0209
7611   60                   RTS
7612   A9 60      L7612     LDA #$60
7614   85 26                STA $26
7616   A9 9F                LDA #$9F
7618   20 DF 77             JSR L77DF
761B   A9 40                LDA #$40
761D   85 26                STA $26
761F   A9 3F                LDA #$3F
7621   20 EB 77             JSR L77EB
7624   A9 0F                LDA #$0F
7626   8D 0A 02             STA $020A
7629   8D E6 FF             STA $FFE6
762C   60                   RTS
762D   20 45 78             JSR L7845
7630   AD 0A 02             LDA $020A
7633   48                   PHA
7634   AD 07 02             LDA $0207
7637   29 C0                AND #$C0
7639   48                   PHA
763A   2C 00 02             BIT $0200
763D   30 06                BMI L7645
763F   AD 03 02             LDA $0203
7642   29 60                AND #$60
7644   48                   PHA
7645   20 12 76   L7645     JSR L7612
7648   4C 9E 74             JMP L749E
764B   20 5D 76             JSR L765D
764E   90 0C                BCC L765C
7650   2C 00 02             BIT $0200
7653   10 06                BPL L765B
7655   AD 0D 80             LDA $800D
7658   20 C1 76             JSR L76C1
765B   38         L765B     SEC
765C   60         L765C     RTS
765D   2C 00 02   L765D     BIT $0200
7660   30 25                BMI L7687
7662   AA                   TAX
7663   AD 05 02             LDA $0205
7666   29 03                AND #$03
7668   C9 01                CMP #$01
766A   F0 06                BEQ L7672
766C   E0 01                CPX #$01
766E   D0 3C                BNE L76AC
7670   80 33                NOP #$33
7672   E0 00      L7672     CPX #$00
7674   F0 2F                BEQ L76A5
7676   E0 01                CPX #$01
7678   D0 32                BNE L76AC
767A   A9 10                LDA #$10
767C   85 26                STA $26
767E   A9 EF                LDA #$EF
7680   20 EB 77             JSR L77EB
7683   A9 80                LDA #$80
7685   80 20                NOP #$20
7687   C9 04      L7687     CMP #$04
7689   B0 21                BCS L76AC
768B   48                   PHA
768C   0A                   ASL A
768D   0A                   ASL A
768E   0A                   ASL A
768F   0A                   ASL A
7690   29 30                AND #$30
7692   85 26                STA $26
7694   A9 C1                LDA #$C1
7696   20 F7 77             JSR L77F7
7699   20 A5 76             JSR L76A5
769C   AD 0D 80             LDA $800D
769F   FA                   NOP
76A0   20 B6 76             JSR L76B6
76A3   80 05                NOP #$05
76A5   A9 00      L76A5     LDA #$00
76A7   20 FE 75             JSR L75FE
76AA   38                   SEC
76AB   60                   RTS
76AC   18         L76AC     CLC
76AD   60                   RTS
76AE   00                   BRK
76AF   08                   PHP
76B0   10 18                BPL L76CA
76B2   18                   CLC
76B3   18                   CLC
76B4   18                   CLC
76B5   18                   CLC
76B6   E0 00      L76B6     CPX #$00
76B8   D0 07                BNE L76C1
76BA   2C 00 02             BIT $0200
76BD   30 02                BMI L76C1
76BF   A9 04                LDA #$04
76C1   2C 00 02   L76C1     BIT $0200
76C4   30 1A                BMI L76E0
76C6   AA                   TAX
76C7   BD AE 76             LDA $76AE,X
76CA   85 26      L76CA     STA $26
76CC   A9 E7                LDA #$E7
76CE   20 DF 77             JSR L77DF
76D1   A9 10                LDA #$10
76D3   E0 04                CPX #$04
76D5   F0 02                BEQ L76D9
76D7   A9 00                LDA #$00
76D9   85 26      L76D9     STA $26
76DB   A9 EF                LDA #$EF
76DD   4C EB 77             JMP L77EB
76E0   0A         L76E0     ASL A
76E1   29 0E                AND #$0E
76E3   85 26                STA $26
76E5   A9 F1                LDA #$F1
76E7   4C F7 77             JMP L77F7
76EA   20 45 78             JSR L7845
76ED   2C 00 02             BIT $0200
76F0   30 0E                BMI L7700
76F2   AD 07 02             LDA $0207
76F5   29 10                AND #$10
76F7   48                   PHA
76F8   AD 03 02             LDA $0203
76FB   29 18                AND #$18
76FD   48                   PHA
76FE   80 06                NOP #$06
7700   AD FF FF   L7700     LDA $FFFF
7703   29 0E                AND #$0E
7705   48                   PHA
7706   4C 9E 74             JMP L749E
7709   20 45 78             JSR L7845
770C   2C 00 02             BIT $0200
770F   30 12                BMI L7723
7711   68                   PLA
7712   85 26                STA $26
7714   A9 E7                LDA #$E7
7716   20 DF 77             JSR L77DF
7719   68                   PLA
771A   85 26                STA $26
771C   A9 EF                LDA #$EF
771E   20 EB 77             JSR L77EB
7721   80 08                NOP #$08
7723   68         L7723     PLA
7724   85 26                STA $26
7726   A9 F1                LDA #$F1
7728   20 F7 77             JSR L77F7
772B   4C 9E 74             JMP L749E
772E   20 BC 74             JSR L74BC
7731   20 FE 74             JSR L74FE
7734   BA                   TSX
7735   8E 0F 02             STX $020F
7738   A9 00                LDA #$00
773A   8D E3 FF             STA $FFE3
773D   A9 01                LDA #$01
773F   2C 00 02             BIT $0200
7742   30 02                BMI L7746
7744   A9 39                LDA #$39
7746   8D C8 FF   L7746     STA $FFC8
7749   EA                   NOP
774A   EA                   NOP
774B   EA                   NOP
774C   EA                   NOP
774D   EA                   NOP
774E   80 F6                NOP #$F6
7750   20 19 75   L7750     JSR L7519
7753   20 0D 7F             JSR $7F0D
7756   60                   RTS
7757   2C 00 02             BIT $0200
775A   30 0C                BMI L7768
775C   A8                   TAY
775D   F0 02                BEQ L7761
775F   A9 04                LDA #$04
7761   85 26      L7761     STA $26
7763   A9 FB                LDA #$FB
7765   4C DF 77             JMP L77DF
7768   A8         L7768     TAY
7769   F0 02                BEQ L776D
776B   A9 04                LDA #$04
776D   85 26      L776D     STA $26
776F   A9 FB                LDA #$FB
7771   4C 00 78             JMP L7800
7774   20 45 78             JSR L7845
7777   2C 00 02             BIT $0200
777A   30 0E                BMI L778A
777C   AD 03 02             LDA $0203
777F   29 04                AND #$04
7781   48                   PHA
7782   AD 07 02             LDA $0207
7785   29 02                AND #$02
7787   48                   PHA
7788   80 16                NOP #$16
778A   AD 05 02   L778A     LDA $0205
778D   29 04                AND #$04
778F   48                   PHA
7790   AD 03 02             LDA $0203
7793   29 04                AND #$04
7795   48                   PHA
7796   AD 65 02             LDA $0265
7799   48                   PHA
779A   AD 07 02             LDA $0207
779D   29 08                AND #$08
779F   48                   PHA
77A0   4C 9E 74             JMP L749E
77A3   20 45 78             JSR L7845
77A6   2C 00 02             BIT $0200
77A9   30 12                BMI L77BD
77AB   68                   PLA
77AC   85 26                STA $26
77AE   A9 FD                LDA #$FD
77B0   20 EB 77             JSR L77EB
77B3   68                   PLA
77B4   85 26                STA $26
77B6   A9 FB                LDA #$FB
77B8   20 DF 77             JSR L77DF
77BB   80 1F                NOP #$1F
77BD   68         L77BD     PLA
77BE   85 26                STA $26
77C0   A9 F7                LDA #$F7
77C2   20 EB 77             JSR L77EB
77C5   68                   PLA
77C6   8D 65 02             STA $0265
77C9   8D FE FF             STA $FFFE
77CC   68                   PLA
77CD   85 26                STA $26
77CF   A9 FB                LDA #$FB
77D1   20 DF 77             JSR L77DF
77D4   68                   PLA
77D5   85 26                STA $26
77D7   A9 FB                LDA #$FB
77D9   20 00 78             JSR L7800
77DC   4C 9E 74             JMP L749E
77DF   2D 03 02   L77DF     AND $0203
77E2   05 26                ORA $26
77E4   8D 03 02             STA $0203
77E7   8D C8 FF             STA $FFC8
77EA   60                   RTS
77EB   2D 07 02   L77EB     AND $0207
77EE   05 26                ORA $26
77F0   8D 07 02             STA $0207
77F3   8D E5 FF             STA $FFE5
77F6   60                   RTS
77F7   2D FF FF   L77F7     AND $FFFF
77FA   05 26                ORA $26
77FC   8D FF FF             STA $FFFF
77FF   60                   RTS
7800   2D 05 02   L7800     AND $0205
7803   05 26                ORA $26
7805   8D 05 02             STA $0205
7808   8D CB FF             STA $FFCB
780B   60                   RTS
780C   20 45 78             JSR L7845
780F   2C 00 02             BIT $0200
7812   10 07                BPL L781B
7814   AD F9 FF             LDA $FFF9
7817   48                   PHA
7818   9C F9 FF             SHY $FFF9,X
781B   AD D0 FF   L781B     LDA $FFD0
781E   48                   PHA
781F   AD CF FF             LDA $FFCF
7822   48                   PHA
7823   AD CE FF             LDA $FFCE
7826   48                   PHA
7827   4C 9E 74             JMP L749E
782A   20 45 78             JSR L7845
782D   68                   PLA
782E   8D CE FF             STA $FFCE
7831   68                   PLA
7832   8D CF FF             STA $FFCF
7835   68                   PLA
7836   8D D0 FF             STA $FFD0
7839   2C 00 02             BIT $0200
783C   10 04                BPL L7842
783E   68                   PLA
783F   8D F9 FF             STA $FFF9
7842   4C 9E 74   L7842     JMP L749E
7845   DA         L7845     NOP
7846   BA                   TSX
7847   BD 05 01             LDA $0105,X
784A   8D 19 02             STA $0219
784D   BD 04 01             LDA $0104,X
7850   8D 1A 02             STA $021A
7853   BD 02 01             LDA $0102,X
7856   9D 04 01             STA $0104,X
7859   BD 03 01             LDA $0103,X
785C   9D 05 01             STA $0105,X
785F   FA                   NOP
7860   68                   PLA
7861   68                   PLA
7862   60                   RTS
7863   48         L7863     PHA
7864   48                   PHA
7865   DA                   NOP
7866   BA                   TSX
7867   BD 04 01             LDA $0104,X
786A   9D 02 01             STA $0102,X
786D   BD 05 01             LDA $0105,X
7870   9D 03 01             STA $0103,X
7873   AD 19 02             LDA $0219
7876   9D 05 01             STA $0105,X
7879   AD 1A 02             LDA $021A
787C   9D 04 01             STA $0104,X
787F   FA                   NOP
7880   60                   RTS
                            .END

;auto-generated symbols and labels
 L7309      $7309
 L7316      $7316
 L7359      $7359
 L7367      $7367
 L7388      $7388
 L7409      $7409
 L7415      $7415
 L7417      $7417
 L7442      $7442
 L7448      $7448
 L7460      $7460
 L7470      $7470
 L7516      $7516
 L7519      $7519
 L7530      $7530
 L7556      $7556
 L7580      $7580
 L7612      $7612
 L7645      $7645
 L7672      $7672
 L7687      $7687
 L7700      $7700
 L7723      $7723
 L7746      $7746
 L7750      $7750
 L7761      $7761
 L7768      $7768
 L7800      $7800
 L7842      $7842
 L7845      $7845
 L7863      $7863
 L72AA      $72AA
 L72D5      $72D5
 L72DD      $72DD
 L72F7      $72F7
 L72FF      $72FF
 L735D      $735D
 L73A6      $73A6
 L73B9      $73B9
 L73E6      $73E6
 L743D      $743D
 L73CF      $73CF
 L748F      $748F
 L75FC      $75FC
 L74AE      $74AE
 L74E5      $74E5
 L74A2      $74A2
 L75FE      $75FE
 L749E      $749E
 L77EB      $77EB
 L77DF      $77DF
 L77F7      $77F7
 L75A2      $75A2
 L75BC      $75BC
 L75CF      $75CF
 L75E0      $75E0
 L75E2      $75E2
 L75EC      $75EC
 L760C      $760C
 L765D      $765D
 L765C      $765C
 L765B      $765B
 L76C1      $76C1
 L76AC      $76AC
 L76A5      $76A5
 L76B6      $76B6
 L76CA      $76CA
 L76E0      $76E0
 L76D9      $76D9
 L74BC      $74BC
 L74FE      $74FE
 L776D      $776D
 L778A      $778A
 L77BD      $77BD
 L781B      $781B
